target datalayout = "e-m:e-p270:32:32-p271:32:32-p272:64:64-i64:64-i128:128-f80:128-n8:16:32:64-S128"
target triple = "x86_64-unknown-linux-gnu"

; Function Attrs: mustprogress uwtable
define noundef double @_ZNK8QuantLib13GammaFunction5valueEd(ptr noundef nonnull align 1 dereferenceable(1) %this, double noundef %x) #0 align 2 {
entry:
  %retval = alloca double, align 8
  %this.addr = alloca ptr, align 8
  %x.addr = alloca double, align 8
  store ptr %this, ptr %this.addr, align 8, !tbaa !3
  store double %x, ptr %x.addr, align 8, !tbaa !7
  %this1 = load ptr, ptr %this.addr, align 8
  %0 = load double, ptr %x.addr, align 8, !tbaa !7
  %cmp = fcmp oge double %0, 1.000000e+00
  br i1 %cmp, label %if.then, label %if.else

if.then:                                          ; preds = %entry
  %1 = load double, ptr %x.addr, align 8, !tbaa !7
  %call = call noundef double @_ZNK8QuantLib13GammaFunction8logValueEd(ptr noundef nonnull align 1 dereferenceable(1) %this1, double noundef %1)
  %call2 = call double @exp(double noundef %call) #13, !tbaa !13
  store double %call2, ptr %retval, align 8
  br label %return

if.else:                                          ; preds = %entry
  %2 = load double, ptr %x.addr, align 8, !tbaa !7
  %cmp3 = fcmp ogt double %2, -2.000000e+01
  br i1 %cmp3, label %if.then4, label %if.else6

if.then4:                                         ; preds = %if.else
  %3 = load double, ptr %x.addr, align 8, !tbaa !7
  %add = fadd double %3, 1.000000e+00
  %call5 = call noundef double @_ZNK8QuantLib13GammaFunction5valueEd(ptr noundef nonnull align 1 dereferenceable(1) %this1, double noundef %add)
  %4 = load double, ptr %x.addr, align 8, !tbaa !7
  %div = fdiv double %call5, %4
  store double %div, ptr %retval, align 8
  br label %return

if.else6:                                         ; preds = %if.else
  %5 = load double, ptr %x.addr, align 8, !tbaa !7
  %fneg = fneg double %5
  %call7 = call noundef double @_ZNK8QuantLib13GammaFunction5valueEd(ptr noundef nonnull align 1 dereferenceable(1) %this1, double noundef %fneg)
  %6 = load double, ptr %x.addr, align 8, !tbaa !7
  %mul = fmul double %call7, %6
  %7 = load double, ptr %x.addr, align 8, !tbaa !7
  %mul8 = fmul double 0x400921FB54442D18, %7
  %call9 = call double @sin(double noundef %mul8) #13, !tbaa !13
  %mul10 = fmul double %mul, %call9
  %div11 = fdiv double 0xC00921FB54442D18, %mul10
  store double %div11, ptr %retval, align 8
  br label %return

return:                                           ; preds = %if.else6, %if.then4, %if.then
  %8 = load double, ptr %retval, align 8
  ret double %8
}