; Function Attrs: mustprogress uwtable
define noundef double @_ZNK8QuantLib13GammaFunction5valueEd(ptr noundef nonnull align 1 dereferenceable(1) %this, double noundef %x) local_unnamed_addr #0 align 2 {
entry:
  %cmp = fcmp ult double %x, 1.000000e+00
  br i1 %cmp, label %if.else, label %if.then

if.then:                                          ; preds = %entry
  %call = tail call noundef double @_ZNK8QuantLib13GammaFunction8logValueEd(ptr nonnull align 1 poison, double noundef %x)
  %call2 = tail call double @exp(double noundef %call) #16, !tbaa !10
  br label %common.ret8

if.else:                                          ; preds = %entry
  %cmp3 = fcmp ogt double %x, -2.000000e+01
  br i1 %cmp3, label %if.then4, label %if.else6

common.ret8:                                      ; preds = %if.else6, %if.then4, %if.then
  %common.ret8.op = phi double [ %call2, %if.then ], [ %div, %if.then4 ], [ %div11, %if.else6 ]
  ret double %common.ret8.op

if.then4:                                         ; preds = %if.else
  %add = fadd double %x, 1.000000e+00
  %call5 = tail call noundef double @_ZNK8QuantLib13GammaFunction5valueEd(ptr noundef nonnull align 1 dereferenceable(1) %this, double noundef %add)
  %div = fdiv double %call5, %x
  br label %common.ret8

if.else6:                                         ; preds = %if.else
  %fneg = fneg double %x
  %call7 = tail call noundef double @_ZNK8QuantLib13GammaFunction5valueEd(ptr noundef nonnull align 1 dereferenceable(1) %this, double noundef %fneg)
  %mul = fmul double %x, %call7
  %mul8 = fmul double %x, 0x400921FB54442D18
  %call9 = tail call double @sin(double noundef %mul8) #16, !tbaa !10
  %mul10 = fmul double %mul, %call9
  %div11 = fdiv double 0xC00921FB54442D18, %mul10
  br label %common.ret8
}